target datalayout = "e-m:e-p270:32:32-p271:32:32-p272:64:64-i64:64-i128:128-f80:128-n8:16:32:64-S128"
target triple = "x86_64-pc-linux-gnu"

%struct.addrinfo = type { i32, i32, i32, i32, i32, ptr, ptr, ptr }

; Function Attrs: nounwind uwtable
define ptr @evutil_addrinfo_append_(ptr noundef %0, ptr noundef %1) #0 {
  %3 = alloca ptr, align 8
  %4 = alloca ptr, align 8
  %5 = alloca ptr, align 8
  %6 = alloca ptr, align 8
  %7 = alloca i32, align 4
  store ptr %0, ptr %4, align 8
  store ptr %1, ptr %5, align 8
  call void @llvm.lifetime.start.p0(i64 8, ptr %6) #11
  %8 = load ptr, ptr %4, align 8
  store ptr %8, ptr %6, align 8
  %9 = load ptr, ptr %6, align 8
  %10 = icmp ne ptr %9, null
  br i1 %10, label %13, label %11

11:                                               ; preds = %2
  %12 = load ptr, ptr %5, align 8
  store ptr %12, ptr %3, align 8
  store i32 1, ptr %7, align 4
  br label %28

13:                                               ; preds = %2
  br label %14

14:                                               ; preds = %19, %13
  %15 = load ptr, ptr %6, align 8
  %16 = getelementptr inbounds nuw %struct.addrinfo, ptr %15, i32 0, i32 7
  %17 = load ptr, ptr %16, align 8
  %18 = icmp ne ptr %17, null
  br i1 %18, label %19, label %23

19:                                               ; preds = %14
  %20 = load ptr, ptr %6, align 8
  %21 = getelementptr inbounds nuw %struct.addrinfo, ptr %20, i32 0, i32 7
  %22 = load ptr, ptr %21, align 8
  store ptr %22, ptr %6, align 8
  br label %14, !llvm.loop !6

23:                                               ; preds = %14
  %24 = load ptr, ptr %5, align 8
  %25 = load ptr, ptr %6, align 8
  %26 = getelementptr inbounds nuw %struct.addrinfo, ptr %25, i32 0, i32 7
  store ptr %24, ptr %26, align 8
  %27 = load ptr, ptr %4, align 8
  store ptr %27, ptr %3, align 8
  store i32 1, ptr %7, align 4
  br label %28

28:                                               ; preds = %23, %11
  call void @llvm.lifetime.end.p0(i64 8, ptr %6) #11
  %29 = load ptr, ptr %3, align 8
  ret ptr %29
}