; Function Attrs: nofree norecurse nosync nounwind memory(readwrite, inaccessiblemem: none) uwtable
define noundef ptr @evutil_addrinfo_append_(ptr noundef captures(address_is_null, ret: address, provenance) %0, ptr noundef %1) local_unnamed_addr #14 {
  %.not = icmp eq ptr %0, null
  br i1 %.not, label %7, label %.preheader

.preheader:                                       ; preds = %2, %.preheader
  %.0 = phi ptr [ %4, %.preheader ], [ %0, %2 ]
  %3 = getelementptr inbounds nuw i8, ptr %.0, i64 40
  %4 = load ptr, ptr %3, align 8
  %.not12 = icmp eq ptr %4, null
  br i1 %.not12, label %5, label %.preheader, !llvm.loop !6

5:                                                ; preds = %.preheader
  %6 = getelementptr inbounds nuw i8, ptr %.0, i64 40
  store ptr %1, ptr %6, align 8
  br label %7

7:                                                ; preds = %2, %5
  %.09 = phi ptr [ %0, %5 ], [ %1, %2 ]
  ret ptr %.09
}